; Function Attrs: mustprogress uwtable
define hidden void @_ZN4ncnn21Yolov3DetectionOutputC2Ev(ptr noundef nonnull align 8 dereferenceable(456) %0) unnamed_addr #1 align 2 personality ptr @__gxx_personality_v0 {
  %2 = alloca %"class.ncnn::ParamDict", align 8
  tail call void @_ZN4ncnn5LayerC2Ev(ptr noundef nonnull align 8 dereferenceable(208) %0)
  store ptr getelementptr inbounds nuw inrange(-16, 80) (i8, ptr @_ZTVN4ncnn21Yolov3DetectionOutputE, i64 16), ptr %0, align 8, !tbaa !37
  %3 = getelementptr inbounds nuw i8, ptr %0, i64 224
  %4 = getelementptr inbounds nuw i8, ptr %0, i64 232
  %5 = getelementptr inbounds nuw i8, ptr %0, i64 256
  %6 = getelementptr inbounds nuw i8, ptr %0, i64 288
  %7 = getelementptr inbounds nuw i8, ptr %0, i64 296
  %8 = getelementptr inbounds nuw i8, ptr %0, i64 304
  %9 = getelementptr inbounds nuw i8, ptr %0, i64 328
  %10 = getelementptr inbounds nuw i8, ptr %0, i64 336
  %11 = getelementptr inbounds nuw i8, ptr %0, i64 360
  %12 = getelementptr inbounds nuw i8, ptr %0, i64 368
  %13 = getelementptr inbounds nuw i8, ptr %0, i64 376
  %14 = getelementptr inbounds nuw i8, ptr %0, i64 400
  %15 = getelementptr inbounds nuw i8, ptr %0, i64 408
  %16 = getelementptr inbounds nuw i8, ptr %0, i64 432
  store i64 0, ptr %16, align 8, !tbaa !33
  %17 = getelementptr inbounds nuw i8, ptr %0, i64 8
  store i8 0, ptr %17, align 8, !tbaa !84
  %18 = getelementptr inbounds nuw i8, ptr %0, i64 9
  store i8 0, ptr %18, align 1, !tbaa !85
  tail call void @llvm.memset.p0.i64(ptr noundef nonnull align 8 dereferenceable(28) %3, i8 0, i64 28, i1 false)
  tail call void @llvm.memset.p0.i64(ptr noundef nonnull align 8 dereferenceable(28) %5, i8 0, i64 28, i1 false)
  tail call void @llvm.memset.p0.i64(ptr noundef nonnull align 8 dereferenceable(36) %6, i8 0, i64 36, i1 false)
  tail call void @llvm.memset.p0.i64(ptr noundef nonnull align 8 dereferenceable(28) %9, i8 0, i64 28, i1 false)
  tail call void @llvm.memset.p0.i64(ptr noundef nonnull align 8 dereferenceable(36) %11, i8 0, i64 36, i1 false)
  tail call void @llvm.memset.p0.i64(ptr noundef nonnull align 8 dereferenceable(28) %14, i8 0, i64 28, i1 false)
  call void @llvm.lifetime.start.p0(i64 16, ptr nonnull %2) #14
  invoke void @_ZN4ncnn9ParamDictC1Ev(ptr noundef nonnull align 8 dereferenceable(16) %2)
          to label %19 unwind label %21

19:                                               ; preds = %1
  invoke void @_ZN4ncnn9ParamDict3setEii(ptr noundef nonnull align 8 dereferenceable(16) %2, i32 noundef 0, i32 noundef 0)
          to label %20 unwind label %23

20:                                               ; preds = %19
  call void @_ZN4ncnn9ParamDictD1Ev(ptr noundef nonnull align 8 dereferenceable(16) %2) #14
  call void @llvm.lifetime.end.p0(i64 16, ptr nonnull %2) #14
  ret void

21:                                               ; preds = %1
  %22 = landingpad { ptr, i32 }
          cleanup
  br label %25

23:                                               ; preds = %19
  %24 = landingpad { ptr, i32 }
          cleanup
  call void @_ZN4ncnn9ParamDictD1Ev(ptr noundef nonnull align 8 dereferenceable(16) %2) #14
  br label %25

25:                                               ; preds = %23, %21
  %.pn = phi { ptr, i32 } [ %24, %23 ], [ %22, %21 ]
  call void @llvm.lifetime.end.p0(i64 16, ptr nonnull %2) #14
  %26 = load ptr, ptr %13, align 8, !tbaa !34
  %.not.i10 = icmp eq ptr %26, null
  br i1 %.not.i10, label %_ZN4ncnn3MatD2Ev.exit, label %27

27:                                               ; preds = %25
  %28 = atomicrmw add ptr %26, i32 -1 acq_rel, align 4
  %29 = icmp eq i32 %28, 1
  br i1 %29, label %30, label %_ZN4ncnn3MatD2Ev.exit

30:                                               ; preds = %27
  %31 = load ptr, ptr %14, align 8, !tbaa !35
  %.not3.i11 = icmp eq ptr %31, null
  %32 = load ptr, ptr %12, align 8, !tbaa !36
  br i1 %.not3.i11, label %37, label %33

33:                                               ; preds = %30
  %34 = load ptr, ptr %31, align 8, !tbaa !37
  %35 = getelementptr inbounds nuw i8, ptr %34, i64 24
  %36 = load ptr, ptr %35, align 8
  invoke void %36(ptr noundef nonnull align 8 dereferenceable(8) %31, ptr noundef %32)
          to label %_ZN4ncnn3MatD2Ev.exit unwind label %39

37:                                               ; preds = %30
  %.not.i14 = icmp eq ptr %32, null
  br i1 %.not.i14, label %_ZN4ncnn3MatD2Ev.exit, label %38

38:                                               ; preds = %37
  call void @free(ptr noundef nonnull %32) #14
  br label %_ZN4ncnn3MatD2Ev.exit

39:                                               ; preds = %33
  %40 = landingpad { ptr, i32 }
          catch ptr null
  %41 = extractvalue { ptr, i32 } %40, 0
  call void @__clang_call_terminate(ptr %41) #20
  unreachable

_ZN4ncnn3MatD2Ev.exit:                            ; preds = %27, %25, %33, %37, %38
  store i64 0, ptr %16, align 8, !tbaa !33
  call void @llvm.memset.p0.i64(ptr noundef nonnull align 8 dereferenceable(28) %12, i8 0, i64 28, i1 false)
  call void @llvm.memset.p0.i64(ptr noundef nonnull align 8 dereferenceable(20) %15, i8 0, i64 20, i1 false)
  %42 = load ptr, ptr %8, align 8, !tbaa !34
  %.not.i6 = icmp eq ptr %42, null
  br i1 %.not.i6, label %_ZN4ncnn3MatD2Ev.exit4, label %43

43:                                               ; preds = %_ZN4ncnn3MatD2Ev.exit
  %44 = atomicrmw add ptr %42, i32 -1 acq_rel, align 4
  %45 = icmp eq i32 %44, 1
  br i1 %45, label %46, label %_ZN4ncnn3MatD2Ev.exit4

46:                                               ; preds = %43
  %47 = load ptr, ptr %9, align 8, !tbaa !35
  %.not3.i7 = icmp eq ptr %47, null
  %48 = load ptr, ptr %7, align 8, !tbaa !36
  br i1 %.not3.i7, label %53, label %49

49:                                               ; preds = %46
  %50 = load ptr, ptr %47, align 8, !tbaa !37
  %51 = getelementptr inbounds nuw i8, ptr %50, i64 24
  %52 = load ptr, ptr %51, align 8
  invoke void %52(ptr noundef nonnull align 8 dereferenceable(8) %47, ptr noundef %48)
          to label %_ZN4ncnn3MatD2Ev.exit4 unwind label %55

53:                                               ; preds = %46
  %.not.i15 = icmp eq ptr %48, null
  br i1 %.not.i15, label %_ZN4ncnn3MatD2Ev.exit4, label %54

54:                                               ; preds = %53
  call void @free(ptr noundef nonnull %48) #14
  br label %_ZN4ncnn3MatD2Ev.exit4

55:                                               ; preds = %49
  %56 = landingpad { ptr, i32 }
          catch ptr null
  %57 = extractvalue { ptr, i32 } %56, 0
  call void @__clang_call_terminate(ptr %57) #20
  unreachable

_ZN4ncnn3MatD2Ev.exit4:                           ; preds = %43, %_ZN4ncnn3MatD2Ev.exit, %49, %53, %54
  store i64 0, ptr %11, align 8, !tbaa !33
  call void @llvm.memset.p0.i64(ptr noundef nonnull align 8 dereferenceable(28) %7, i8 0, i64 28, i1 false)
  call void @llvm.memset.p0.i64(ptr noundef nonnull align 8 dereferenceable(20) %10, i8 0, i64 20, i1 false)
  %58 = load ptr, ptr %4, align 8, !tbaa !34
  %.not.i = icmp eq ptr %58, null
  br i1 %.not.i, label %_ZN4ncnn3MatD2Ev.exit5, label %59

59:                                               ; preds = %_ZN4ncnn3MatD2Ev.exit4
  %60 = atomicrmw add ptr %58, i32 -1 acq_rel, align 4
  %61 = icmp eq i32 %60, 1
  br i1 %61, label %62, label %_ZN4ncnn3MatD2Ev.exit5

62:                                               ; preds = %59
  %63 = load ptr, ptr %5, align 8, !tbaa !35
  %.not3.i = icmp eq ptr %63, null
  %64 = load ptr, ptr %3, align 8, !tbaa !36
  br i1 %.not3.i, label %69, label %65

65:                                               ; preds = %62
  %66 = load ptr, ptr %63, align 8, !tbaa !37
  %67 = getelementptr inbounds nuw i8, ptr %66, i64 24
  %68 = load ptr, ptr %67, align 8
  invoke void %68(ptr noundef nonnull align 8 dereferenceable(8) %63, ptr noundef %64)
          to label %_ZN4ncnn3MatD2Ev.exit5 unwind label %71

69:                                               ; preds = %62
  %.not.i17 = icmp eq ptr %64, null
  br i1 %.not.i17, label %_ZN4ncnn3MatD2Ev.exit5, label %70

70:                                               ; preds = %69
  call void @free(ptr noundef nonnull %64) #14
  br label %_ZN4ncnn3MatD2Ev.exit5

71:                                               ; preds = %65
  %72 = landingpad { ptr, i32 }
          catch ptr null
  %73 = extractvalue { ptr, i32 } %72, 0
  call void @__clang_call_terminate(ptr %73) #20
  unreachable

_ZN4ncnn3MatD2Ev.exit5:                           ; preds = %59, %_ZN4ncnn3MatD2Ev.exit4, %65, %69, %70
  %74 = getelementptr inbounds nuw i8, ptr %0, i64 264
  store i64 0, ptr %6, align 8, !tbaa !33
  call void @llvm.memset.p0.i64(ptr noundef nonnull align 8 dereferenceable(28) %3, i8 0, i64 28, i1 false)
  call void @llvm.memset.p0.i64(ptr noundef nonnull align 8 dereferenceable(20) %74, i8 0, i64 20, i1 false)
  call void @_ZN4ncnn5LayerD2Ev(ptr noundef nonnull align 8 dereferenceable(208) %0) #14
  resume { ptr, i32 } %.pn
}